target datalayout = "e-m:e-p270:32:32-p271:32:32-p272:64:64-i64:64-i128:128-f80:128-n8:16:32:64-S128"
target triple = "x86_64-unknown-linux-gnu"

@.str.6 = private unnamed_addr constant [71 x i8] c"#aiProcess_GenSmoothNormals and #aiProcess_GenNormals are incompatible\00", align 1
@.str.7 = private unnamed_addr constant [78 x i8] c"#aiProcess_OptimizeGraph and #aiProcess_PreTransformVertices are incompatible\00", align 1

; Function Attrs: mustprogress uwtable
define hidden noundef zeroext i1 @_Z14_ValidateFlagsj(i32 noundef %pFlags) #2 {
entry:
  %retval = alloca i1, align 1
  %pFlags.addr = alloca i32, align 4
  store i32 %pFlags, ptr %pFlags.addr, align 4
  %0 = load i32, ptr %pFlags.addr, align 4
  %and = and i32 %0, 64
  %tobool = icmp ne i32 %and, 0
  br i1 %tobool, label %land.lhs.true, label %if.end

land.lhs.true:                                    ; preds = %entry
  %1 = load i32, ptr %pFlags.addr, align 4
  %and1 = and i32 %1, 32
  %tobool2 = icmp ne i32 %and1, 0
  br i1 %tobool2, label %if.then, label %if.end

if.then:                                          ; preds = %land.lhs.true
  %call = call noundef ptr @_ZN6Assimp13DefaultLogger3getEv()
  call void @_ZN6Assimp6Logger5errorEPKc(ptr noundef nonnull align 8 dereferenceable(12) %call, ptr noundef @.str.6)
  store i1 false, ptr %retval, align 1
  br label %return

if.end:                                           ; preds = %land.lhs.true, %entry
  %2 = load i32, ptr %pFlags.addr, align 4
  %and3 = and i32 %2, 4194304
  %tobool4 = icmp ne i32 %and3, 0
  br i1 %tobool4, label %land.lhs.true5, label %if.end10

land.lhs.true5:                                   ; preds = %if.end
  %3 = load i32, ptr %pFlags.addr, align 4
  %and6 = and i32 %3, 256
  %tobool7 = icmp ne i32 %and6, 0
  br i1 %tobool7, label %if.then8, label %if.end10

if.then8:                                         ; preds = %land.lhs.true5
  %call9 = call noundef ptr @_ZN6Assimp13DefaultLogger3getEv()
  call void @_ZN6Assimp6Logger5errorEPKc(ptr noundef nonnull align 8 dereferenceable(12) %call9, ptr noundef @.str.7)
  store i1 false, ptr %retval, align 1
  br label %return

if.end10:                                         ; preds = %land.lhs.true5, %if.end
  store i1 true, ptr %retval, align 1
  br label %return

return:                                           ; preds = %if.end10, %if.then8, %if.then
  %4 = load i1, ptr %retval, align 1
  ret i1 %4
}