; Function Attrs: mustprogress uwtable
define hidden noundef zeroext i1 @_Z14_ValidateFlagsj(i32 noundef %pFlags) local_unnamed_addr #2 {
entry:
  %0 = and i32 %pFlags, 96
  %or.cond.not = icmp eq i32 %0, 96
  br i1 %or.cond.not, label %return.sink.split, label %if.end

if.end:                                           ; preds = %entry
  %1 = and i32 %pFlags, 4194560
  %or.cond4.not = icmp eq i32 %1, 4194560
  br i1 %or.cond4.not, label %return.sink.split, label %return

return.sink.split:                                ; preds = %if.end, %entry
  %.str.7.sink = phi ptr [ @.str.6, %entry ], [ @.str.7, %if.end ]
  %call9 = tail call noundef ptr @_ZN6Assimp13DefaultLogger3getEv()
  tail call void @_ZN6Assimp6Logger5errorEPKc(ptr noundef nonnull align 8 dereferenceable(12) %call9, ptr noundef nonnull %.str.7.sink)
  br label %return

return:                                           ; preds = %return.sink.split, %if.end
  %retval.0 = phi i1 [ true, %if.end ], [ false, %return.sink.split ]
  ret i1 %retval.0
}